target datalayout = "e-m:e-p270:32:32-p271:32:32-p272:64:64-i64:64-i128:128-f80:128-n8:16:32:64-S128"
target triple = "x86_64-pc-linux-gnu"

%"class.lean::object_ref" = type { ptr }
%"class.lean::expr" = type { %"class.lean::object_ref" }
%"struct.lean::rb_tree<std::pair<lean::(anonymous namespace)::cache_key, lean::expr>, lean::rb_map<lean::(anonymous namespace)::cache_key, lean::expr, lean::(anonymous namespace)::cache_key_cmp>::entry_cmp>::node" = type { ptr }
%struct.lean_object = type { i32, i32 }
%"struct.lean::rb_tree<std::pair<lean::(anonymous namespace)::cache_key, lean::expr>, lean::rb_map<lean::(anonymous namespace)::cache_key, lean::expr, lean::(anonymous namespace)::cache_key_cmp>::entry_cmp>::node_cell" = type { %"struct.lean::rb_tree<std::pair<lean::(anonymous namespace)::cache_key, lean::expr>, lean::rb_map<lean::(anonymous namespace)::cache_key, lean::expr, lean::(anonymous namespace)::cache_key_cmp>::entry_cmp>::node", %"struct.lean::rb_tree<std::pair<lean::(anonymous namespace)::cache_key, lean::expr>, lean::rb_map<lean::(anonymous namespace)::cache_key, lean::expr, lean::(anonymous namespace)::cache_key_cmp>::entry_cmp>::node", %"struct.std::pair", i8, %"struct.std::atomic" }
%"struct.std::pair" = type { %"struct.lean::(anonymous namespace)::cache_key", %"class.lean::expr" }
%"struct.lean::(anonymous namespace)::cache_key" = type <{ %"class.lean::expr", i8, [7 x i8] }>
%"struct.std::atomic" = type { %"struct.std::__atomic_base" }
%"struct.std::__atomic_base" = type { i32 }

; Function Attrs: alwaysinline mustprogress uwtable
define internal void @_ZL12lean_dec_refP11lean_object(ptr noundef %0) #6 {
  %2 = alloca ptr, align 8
  store ptr %0, ptr %2, align 8, !tbaa !12
  %3 = load ptr, ptr %2, align 8, !tbaa !12
  %4 = getelementptr inbounds nuw %struct.lean_object, ptr %3, i32 0, i32 0
  %5 = load i32, ptr %4, align 4, !tbaa !55
  %6 = icmp sgt i32 %5, 1
  %7 = zext i1 %6 to i64
  %8 = call i64 @llvm.expect.i64(i64 %7, i64 1)
  %9 = icmp ne i64 %8, 0
  br i1 %9, label %10, label %15

10:                                               ; preds = %1
  %11 = load ptr, ptr %2, align 8, !tbaa !12
  %12 = getelementptr inbounds nuw %struct.lean_object, ptr %11, i32 0, i32 0
  %13 = load i32, ptr %12, align 4, !tbaa !55
  %14 = add nsw i32 %13, -1
  store i32 %14, ptr %12, align 4, !tbaa !55
  br label %23

15:                                               ; preds = %1
  %16 = load ptr, ptr %2, align 8, !tbaa !12
  %17 = getelementptr inbounds nuw %struct.lean_object, ptr %16, i32 0, i32 0
  %18 = load i32, ptr %17, align 4, !tbaa !55
  %19 = icmp ne i32 %18, 0
  br i1 %19, label %20, label %22

20:                                               ; preds = %15
  %21 = load ptr, ptr %2, align 8, !tbaa !12
  call void @lean_dec_ref_cold(ptr noundef %21)
  br label %22

22:                                               ; preds = %20, %15
  br label %23

23:                                               ; preds = %22, %10
  ret void
}

; Function Attrs: alwaysinline mustprogress nounwind uwtable
define internal noundef zeroext i1 @_ZL14lean_is_scalarP11lean_object(ptr noundef %0) #7 {
  %2 = alloca ptr, align 8
  store ptr %0, ptr %2, align 8, !tbaa !12
  %3 = load ptr, ptr %2, align 8, !tbaa !12
  %4 = ptrtoint ptr %3 to i64
  %5 = and i64 %4, 1
  %6 = icmp eq i64 %5, 1
  ret i1 %6
}

; Function Attrs: alwaysinline mustprogress uwtable
define internal void @_ZL8lean_decP11lean_object(ptr noundef %0) #6 {
  %2 = alloca ptr, align 8
  store ptr %0, ptr %2, align 8, !tbaa !12
  %3 = load ptr, ptr %2, align 8, !tbaa !12
  %4 = call noundef zeroext i1 @_ZL14lean_is_scalarP11lean_object(ptr noundef %3)
  br i1 %4, label %7, label %5

5:                                                ; preds = %1
  %6 = load ptr, ptr %2, align 8, !tbaa !12
  call void @_ZL12lean_dec_refP11lean_object(ptr noundef %6)
  br label %7

7:                                                ; preds = %5, %1
  ret void
}

; Function Attrs: inlinehint mustprogress uwtable
define linkonce_odr hidden void @_ZN4lean3decEP11lean_object(ptr noundef %0) #5 comdat {
  %2 = alloca ptr, align 8
  store ptr %0, ptr %2, align 8, !tbaa !12
  %3 = load ptr, ptr %2, align 8, !tbaa !12
  call void @_ZL8lean_decP11lean_object(ptr noundef %3)
  ret void
}

; Function Attrs: inlinehint mustprogress nounwind uwtable
define internal void @_ZN4lean12_GLOBAL__N_19cache_keyD2Ev(ptr noundef nonnull align 8 dereferenceable(9) %0) unnamed_addr #3 align 2 {
  %2 = alloca ptr, align 8
  store ptr %0, ptr %2, align 8, !tbaa !90
  %3 = load ptr, ptr %2, align 8
  %4 = getelementptr inbounds nuw %"struct.lean::(anonymous namespace)::cache_key", ptr %3, i32 0, i32 0
  call void @_ZN4lean10object_refD2Ev(ptr noundef nonnull align 8 dereferenceable(8) %4) #15
  ret void
}

; Function Attrs: mustprogress nounwind uwtable
define linkonce_odr hidden void @_ZN4lean10object_refD2Ev(ptr noundef nonnull align 8 dereferenceable(8) %0) unnamed_addr #4 comdat align 2 personality ptr @__gxx_personality_v0 {
  %2 = alloca ptr, align 8
  store ptr %0, ptr %2, align 8, !tbaa !8
  %3 = load ptr, ptr %2, align 8
  %4 = getelementptr inbounds nuw %"class.lean::object_ref", ptr %3, i32 0, i32 0
  %5 = load ptr, ptr %4, align 8, !tbaa !10
  invoke void @_ZN4lean3decEP11lean_object(ptr noundef %5)
          to label %6 unwind label %7

6:                                                ; preds = %1
  ret void

7:                                                ; preds = %1
  %8 = landingpad { ptr, i32 }
          catch ptr null
  %9 = extractvalue { ptr, i32 } %8, 0
  call void @__clang_call_terminate(ptr %9) #16
  unreachable
}

; Function Attrs: inlinehint mustprogress nounwind uwtable
define internal void @_ZNSt4pairIN4lean12_GLOBAL__N_19cache_keyENS0_4exprEED2Ev(ptr noundef nonnull align 8 dereferenceable(24) %0) unnamed_addr #3 align 2 {
  %2 = alloca ptr, align 8
  store ptr %0, ptr %2, align 8, !tbaa !88
  %3 = load ptr, ptr %2, align 8
  %4 = getelementptr inbounds nuw %"struct.std::pair", ptr %3, i32 0, i32 1
  call void @_ZN4lean10object_refD2Ev(ptr noundef nonnull align 8 dereferenceable(8) %4) #15
  %5 = getelementptr inbounds nuw %"struct.std::pair", ptr %3, i32 0, i32 0
  call void @_ZN4lean12_GLOBAL__N_19cache_keyD2Ev(ptr noundef nonnull align 8 dereferenceable(9) %5) #15
  ret void
}

; Function Attrs: alwaysinline mustprogress nounwind uwtable
define linkonce_odr hidden noundef i32 @_ZNSt13__atomic_baseIjE9fetch_subEjSt12memory_order(ptr noundef nonnull align 4 dereferenceable(4) %0, i32 noundef %1, i32 noundef %2) #7 comdat align 2 {
  %4 = alloca ptr, align 8
  %5 = alloca i32, align 4
  %6 = alloca i32, align 4
  %7 = alloca i32, align 4
  %8 = alloca i32, align 4
  store ptr %0, ptr %4, align 8, !tbaa !86
  store i32 %1, ptr %5, align 4, !tbaa !83
  store i32 %2, ptr %6, align 4, !tbaa !84
  %9 = load ptr, ptr %4, align 8
  %10 = getelementptr inbounds nuw %"struct.std::__atomic_base", ptr %9, i32 0, i32 0
  %11 = load i32, ptr %6, align 4, !tbaa !84
  %12 = load i32, ptr %5, align 4, !tbaa !83
  store i32 %12, ptr %7, align 4, !tbaa !83
  switch i32 %11, label %13 [
    i32 1, label %16
    i32 2, label %16
    i32 3, label %19
    i32 4, label %22
    i32 5, label %25
  ]

13:                                               ; preds = %3
  %14 = load i32, ptr %7, align 4
  %15 = atomicrmw sub ptr %10, i32 %14 monotonic, align 4
  store i32 %15, ptr %8, align 4
  br label %28

16:                                               ; preds = %3, %3
  %17 = load i32, ptr %7, align 4
  %18 = atomicrmw sub ptr %10, i32 %17 acquire, align 4
  store i32 %18, ptr %8, align 4
  br label %28

19:                                               ; preds = %3
  %20 = load i32, ptr %7, align 4
  %21 = atomicrmw sub ptr %10, i32 %20 release, align 4
  store i32 %21, ptr %8, align 4
  br label %28

22:                                               ; preds = %3
  %23 = load i32, ptr %7, align 4
  %24 = atomicrmw sub ptr %10, i32 %23 acq_rel, align 4
  store i32 %24, ptr %8, align 4
  br label %28

25:                                               ; preds = %3
  %26 = load i32, ptr %7, align 4
  %27 = atomicrmw sub ptr %10, i32 %26 seq_cst, align 4
  store i32 %27, ptr %8, align 4
  br label %28

28:                                               ; preds = %25, %22, %19, %16, %13
  %29 = load i32, ptr %8, align 4, !tbaa !83
  ret i32 %29
}

; Function Attrs: inlinehint mustprogress nounwind uwtable
define internal void @_ZN4lean7rb_treeISt4pairINS_12_GLOBAL__N_19cache_keyENS_4exprEENS_6rb_mapIS3_S4_NS2_13cache_key_cmpEE9entry_cmpEE9node_cellD2Ev(ptr noundef nonnull align 8 dereferenceable(48) %0) unnamed_addr #3 align 2 {
  %2 = alloca ptr, align 8
  store ptr %0, ptr %2, align 8, !tbaa !80
  %3 = load ptr, ptr %2, align 8
  %4 = getelementptr inbounds nuw %"struct.lean::rb_tree<std::pair<lean::(anonymous namespace)::cache_key, lean::expr>, lean::rb_map<lean::(anonymous namespace)::cache_key, lean::expr, lean::(anonymous namespace)::cache_key_cmp>::entry_cmp>::node_cell", ptr %3, i32 0, i32 2
  call void @_ZNSt4pairIN4lean12_GLOBAL__N_19cache_keyENS0_4exprEED2Ev(ptr noundef nonnull align 8 dereferenceable(24) %4) #15
  %5 = getelementptr inbounds nuw %"struct.lean::rb_tree<std::pair<lean::(anonymous namespace)::cache_key, lean::expr>, lean::rb_map<lean::(anonymous namespace)::cache_key, lean::expr, lean::(anonymous namespace)::cache_key_cmp>::entry_cmp>::node_cell", ptr %3, i32 0, i32 1
  call void @_ZN4lean7rb_treeISt4pairINS_12_GLOBAL__N_19cache_keyENS_4exprEENS_6rb_mapIS3_S4_NS2_13cache_key_cmpEE9entry_cmpEE4nodeD2Ev(ptr noundef nonnull align 8 dereferenceable(8) %5) #15
  %6 = getelementptr inbounds nuw %"struct.lean::rb_tree<std::pair<lean::(anonymous namespace)::cache_key, lean::expr>, lean::rb_map<lean::(anonymous namespace)::cache_key, lean::expr, lean::(anonymous namespace)::cache_key_cmp>::entry_cmp>::node_cell", ptr %3, i32 0, i32 0
  call void @_ZN4lean7rb_treeISt4pairINS_12_GLOBAL__N_19cache_keyENS_4exprEENS_6rb_mapIS3_S4_NS2_13cache_key_cmpEE9entry_cmpEE4nodeD2Ev(ptr noundef nonnull align 8 dereferenceable(8) %6) #15
  ret void
}

; Function Attrs: inlinehint mustprogress nounwind uwtable
define linkonce_odr noundef i32 @_ZSt25atomic_fetch_sub_explicitIjET_PSt6atomicIS0_ENS2_15difference_typeESt12memory_order(ptr noundef %0, i32 noundef %1, i32 noundef %2) #3 comdat {
  %4 = alloca ptr, align 8
  %5 = alloca i32, align 4
  %6 = alloca i32, align 4
  store ptr %0, ptr %4, align 8, !tbaa !81
  store i32 %1, ptr %5, align 4, !tbaa !83
  store i32 %2, ptr %6, align 4, !tbaa !84
  %7 = load ptr, ptr %4, align 8, !tbaa !81
  %8 = load i32, ptr %5, align 4, !tbaa !83
  %9 = load i32, ptr %6, align 4, !tbaa !84
  %10 = call noundef i32 @_ZNSt13__atomic_baseIjE9fetch_subEjSt12memory_order(ptr noundef nonnull align 4 dereferenceable(4) %7, i32 noundef %8, i32 noundef %9) #15
  ret i32 %10
}

; Function Attrs: mustprogress nounwind uwtable
define internal void @_ZN4lean7rb_treeISt4pairINS_12_GLOBAL__N_19cache_keyENS_4exprEENS_6rb_mapIS3_S4_NS2_13cache_key_cmpEE9entry_cmpEE9node_cell7deallocEv(ptr noundef nonnull align 8 dereferenceable(48) %0) #4 align 2 {
  %2 = alloca ptr, align 8
  store ptr %0, ptr %2, align 8, !tbaa !80
  %3 = load ptr, ptr %2, align 8
  %4 = icmp eq ptr %3, null
  br i1 %4, label %6, label %5

5:                                                ; preds = %1
  call void @_ZN4lean7rb_treeISt4pairINS_12_GLOBAL__N_19cache_keyENS_4exprEENS_6rb_mapIS3_S4_NS2_13cache_key_cmpEE9entry_cmpEE9node_cellD2Ev(ptr noundef nonnull align 8 dereferenceable(48) %3) #15
  call void @_ZdlPvm(ptr noundef %3, i64 noundef 48) #17
  br label %6

6:                                                ; preds = %5, %1
  ret void
}

; Function Attrs: mustprogress nounwind uwtable
define internal noundef zeroext i1 @_ZN4lean7rb_treeISt4pairINS_12_GLOBAL__N_19cache_keyENS_4exprEENS_6rb_mapIS3_S4_NS2_13cache_key_cmpEE9entry_cmpEE9node_cell12dec_ref_coreEv(ptr noundef nonnull align 8 dereferenceable(48) %0) #4 align 2 {
  %2 = alloca ptr, align 8
  store ptr %0, ptr %2, align 8, !tbaa !80
  %3 = load ptr, ptr %2, align 8
  %4 = getelementptr inbounds nuw %"struct.lean::rb_tree<std::pair<lean::(anonymous namespace)::cache_key, lean::expr>, lean::rb_map<lean::(anonymous namespace)::cache_key, lean::expr, lean::(anonymous namespace)::cache_key_cmp>::entry_cmp>::node_cell", ptr %3, i32 0, i32 4
  %5 = call noundef i32 @_ZSt25atomic_fetch_sub_explicitIjET_PSt6atomicIS0_ENS2_15difference_typeESt12memory_order(ptr noundef %4, i32 noundef 1, i32 noundef 4) #15
  %6 = icmp eq i32 %5, 1
  ret i1 %6
}

; Function Attrs: mustprogress uwtable
define internal void @_ZN4lean7rb_treeISt4pairINS_12_GLOBAL__N_19cache_keyENS_4exprEENS_6rb_mapIS3_S4_NS2_13cache_key_cmpEE9entry_cmpEE9node_cell7dec_refEv(ptr noundef nonnull align 8 dereferenceable(48) %0) #0 align 2 {
  %2 = alloca ptr, align 8
  store ptr %0, ptr %2, align 8, !tbaa !80
  %3 = load ptr, ptr %2, align 8
  %4 = call noundef zeroext i1 @_ZN4lean7rb_treeISt4pairINS_12_GLOBAL__N_19cache_keyENS_4exprEENS_6rb_mapIS3_S4_NS2_13cache_key_cmpEE9entry_cmpEE9node_cell12dec_ref_coreEv(ptr noundef nonnull align 8 dereferenceable(48) %3)
  br i1 %4, label %5, label %6

5:                                                ; preds = %1
  call void @_ZN4lean7rb_treeISt4pairINS_12_GLOBAL__N_19cache_keyENS_4exprEENS_6rb_mapIS3_S4_NS2_13cache_key_cmpEE9entry_cmpEE9node_cell7deallocEv(ptr noundef nonnull align 8 dereferenceable(48) %3)
  br label %6

6:                                                ; preds = %5, %1
  ret void
}