; Function Attrs: mustprogress nounwind uwtable
define internal fastcc void @_ZN4lean7rb_treeISt4pairINS_12_GLOBAL__N_19cache_keyENS_4exprEENS_6rb_mapIS3_S4_NS2_13cache_key_cmpEE9entry_cmpEE9node_cell7dec_refEv(ptr noundef nonnull align 8 dereferenceable(48) %0) unnamed_addr #4 align 2 personality ptr @__gxx_personality_v0 {
  %2 = getelementptr inbounds nuw i8, ptr %0, i64 44
  %3 = atomicrmw sub ptr %2, i32 1 acq_rel, align 4
  %4 = icmp eq i32 %3, 1
  br i1 %4, label %5, label %34

5:                                                ; preds = %1
  %6 = getelementptr inbounds nuw i8, ptr %0, i64 16
  %7 = getelementptr inbounds nuw i8, ptr %0, i64 32
  %8 = load ptr, ptr %7, align 8, !tbaa !3
  %9 = ptrtoint ptr %8 to i64
  %10 = and i64 %9, 1
  %.not.i.i.i.i = icmp eq i64 %10, 0
  br i1 %.not.i.i.i.i, label %11, label %_ZN4lean10object_refD2Ev.exit.i.i

11:                                               ; preds = %5
  %12 = load i32, ptr %8, align 4, !tbaa !8
  %13 = icmp sgt i32 %12, 1
  br i1 %13, label %14, label %16, !prof !11

14:                                               ; preds = %11
  %15 = add nsw i32 %12, -1
  store i32 %15, ptr %8, align 4, !tbaa !8
  br label %_ZN4lean10object_refD2Ev.exit.i.i

16:                                               ; preds = %11
  %.not.i.i.i.i.i = icmp eq i32 %12, 0
  br i1 %.not.i.i.i.i.i, label %_ZN4lean10object_refD2Ev.exit.i.i, label %17

17:                                               ; preds = %16
  invoke void @lean_dec_ref_cold(ptr noundef nonnull %8)
          to label %_ZN4lean10object_refD2Ev.exit.i.i unwind label %18

18:                                               ; preds = %17
  %19 = landingpad { ptr, i32 }
          catch ptr null
  %20 = extractvalue { ptr, i32 } %19, 0
  tail call void @__clang_call_terminate(ptr %20) #18
  unreachable

_ZN4lean10object_refD2Ev.exit.i.i:                ; preds = %17, %16, %14, %5
  %.val.i.i = load ptr, ptr %6, align 8, !tbaa !3
  %21 = ptrtoint ptr %.val.i.i to i64
  %22 = and i64 %21, 1
  %.not.i.i.i1.i.i = icmp eq i64 %22, 0
  br i1 %.not.i.i.i1.i.i, label %23, label %_ZN4lean7rb_treeISt4pairINS_12_GLOBAL__N_19cache_keyENS_4exprEENS_6rb_mapIS3_S4_NS2_13cache_key_cmpEE9entry_cmpEE9node_cell7deallocEv.exit

23:                                               ; preds = %_ZN4lean10object_refD2Ev.exit.i.i
  %24 = load i32, ptr %.val.i.i, align 4, !tbaa !8
  %25 = icmp sgt i32 %24, 1
  br i1 %25, label %26, label %28, !prof !11

26:                                               ; preds = %23
  %27 = add nsw i32 %24, -1
  store i32 %27, ptr %.val.i.i, align 4, !tbaa !8
  br label %_ZN4lean7rb_treeISt4pairINS_12_GLOBAL__N_19cache_keyENS_4exprEENS_6rb_mapIS3_S4_NS2_13cache_key_cmpEE9entry_cmpEE9node_cell7deallocEv.exit

28:                                               ; preds = %23
  %.not.i.i.i.i.i.i = icmp eq i32 %24, 0
  br i1 %.not.i.i.i.i.i.i, label %_ZN4lean7rb_treeISt4pairINS_12_GLOBAL__N_19cache_keyENS_4exprEENS_6rb_mapIS3_S4_NS2_13cache_key_cmpEE9entry_cmpEE9node_cell7deallocEv.exit, label %29

29:                                               ; preds = %28
  invoke void @lean_dec_ref_cold(ptr noundef nonnull %.val.i.i)
          to label %_ZN4lean7rb_treeISt4pairINS_12_GLOBAL__N_19cache_keyENS_4exprEENS_6rb_mapIS3_S4_NS2_13cache_key_cmpEE9entry_cmpEE9node_cell7deallocEv.exit unwind label %30

30:                                               ; preds = %29
  %31 = landingpad { ptr, i32 }
          catch ptr null
  %32 = extractvalue { ptr, i32 } %31, 0
  tail call void @__clang_call_terminate(ptr %32) #18
  unreachable

_ZN4lean7rb_treeISt4pairINS_12_GLOBAL__N_19cache_keyENS_4exprEENS_6rb_mapIS3_S4_NS2_13cache_key_cmpEE9entry_cmpEE9node_cell7deallocEv.exit: ; preds = %_ZN4lean10object_refD2Ev.exit.i.i, %26, %28, %29
  %33 = getelementptr inbounds nuw i8, ptr %0, i64 8
  tail call fastcc void @_ZN4lean7rb_treeISt4pairINS_12_GLOBAL__N_19cache_keyENS_4exprEENS_6rb_mapIS3_S4_NS2_13cache_key_cmpEE9entry_cmpEE4nodeD2Ev(ptr noundef nonnull align 8 dereferenceable(8) %33) #17
  tail call fastcc void @_ZN4lean7rb_treeISt4pairINS_12_GLOBAL__N_19cache_keyENS_4exprEENS_6rb_mapIS3_S4_NS2_13cache_key_cmpEE9entry_cmpEE4nodeD2Ev(ptr noundef nonnull align 8 dereferenceable(48) %0) #17
  tail call void @_ZdlPvm(ptr noundef nonnull align 8 dereferenceable(48) %0, i64 noundef 48) #19
  br label %34

34:                                               ; preds = %_ZN4lean7rb_treeISt4pairINS_12_GLOBAL__N_19cache_keyENS_4exprEENS_6rb_mapIS3_S4_NS2_13cache_key_cmpEE9entry_cmpEE9node_cell7deallocEv.exit, %1
  ret void
}